target datalayout = "e-m:e-p270:32:32-p271:32:32-p272:64:64-i64:64-i128:128-f80:128-n8:16:32:64-S128"
target triple = "x86_64-unknown-linux-gnu"

%struct.tdefl_compressor = type { ptr, ptr, i32, [2 x i32], i32, i32, i32, i32, i32, ptr, ptr, ptr, ptr, i32, i32, i32, i32, i32, i32, i32, i32, i32, i32, i32, i32, i32, i32, ptr, ptr, ptr, ptr, i32, ptr, i64, i64, [33025 x i8], [3 x [288 x i16]], [3 x [288 x i16]], [3 x [288 x i8]], [65536 x i8], [32768 x i16], [32768 x i16], [85196 x i8] }

; Function Attrs: nounwind uwtable
define internal i32 @tdefl_flush_output_buffer(ptr noundef %d) #0 {
entry:
  %d.addr = alloca ptr, align 8
  %n = alloca i64, align 8
  store ptr %d, ptr %d.addr, align 8
  %0 = load ptr, ptr %d.addr, align 8
  %m_pIn_buf_size = getelementptr inbounds %struct.tdefl_compressor, ptr %0, i32 0, i32 29
  %1 = load ptr, ptr %m_pIn_buf_size, align 8
  %tobool = icmp ne ptr %1, null
  br i1 %tobool, label %if.then, label %if.end

if.then:                                          ; preds = %entry
  %2 = load ptr, ptr %d.addr, align 8
  %m_pSrc = getelementptr inbounds %struct.tdefl_compressor, ptr %2, i32 0, i32 32
  %3 = load ptr, ptr %m_pSrc, align 8
  %4 = load ptr, ptr %d.addr, align 8
  %m_pIn_buf = getelementptr inbounds %struct.tdefl_compressor, ptr %4, i32 0, i32 27
  %5 = load ptr, ptr %m_pIn_buf, align 8
  %sub.ptr.lhs.cast = ptrtoint ptr %3 to i64
  %sub.ptr.rhs.cast = ptrtoint ptr %5 to i64
  %sub.ptr.sub = sub i64 %sub.ptr.lhs.cast, %sub.ptr.rhs.cast
  %6 = load ptr, ptr %d.addr, align 8
  %m_pIn_buf_size1 = getelementptr inbounds %struct.tdefl_compressor, ptr %6, i32 0, i32 29
  %7 = load ptr, ptr %m_pIn_buf_size1, align 8
  store i64 %sub.ptr.sub, ptr %7, align 8
  br label %if.end

if.end:                                           ; preds = %if.then, %entry
  %8 = load ptr, ptr %d.addr, align 8
  %m_pOut_buf_size = getelementptr inbounds %struct.tdefl_compressor, ptr %8, i32 0, i32 30
  %9 = load ptr, ptr %m_pOut_buf_size, align 8
  %tobool2 = icmp ne ptr %9, null
  br i1 %tobool2, label %if.then3, label %if.end22

if.then3:                                         ; preds = %if.end
  %10 = load ptr, ptr %d.addr, align 8
  %m_pOut_buf_size4 = getelementptr inbounds %struct.tdefl_compressor, ptr %10, i32 0, i32 30
  %11 = load ptr, ptr %m_pOut_buf_size4, align 8
  %12 = load i64, ptr %11, align 8
  %13 = load ptr, ptr %d.addr, align 8
  %m_out_buf_ofs = getelementptr inbounds %struct.tdefl_compressor, ptr %13, i32 0, i32 34
  %14 = load i64, ptr %m_out_buf_ofs, align 8
  %sub = sub i64 %12, %14
  %15 = load ptr, ptr %d.addr, align 8
  %m_output_flush_remaining = getelementptr inbounds %struct.tdefl_compressor, ptr %15, i32 0, i32 22
  %16 = load i32, ptr %m_output_flush_remaining, align 4
  %conv = zext i32 %16 to i64
  %cmp = icmp ult i64 %sub, %conv
  br i1 %cmp, label %cond.true, label %cond.false

cond.true:                                        ; preds = %if.then3
  %17 = load ptr, ptr %d.addr, align 8
  %m_pOut_buf_size6 = getelementptr inbounds %struct.tdefl_compressor, ptr %17, i32 0, i32 30
  %18 = load ptr, ptr %m_pOut_buf_size6, align 8
  %19 = load i64, ptr %18, align 8
  %20 = load ptr, ptr %d.addr, align 8
  %m_out_buf_ofs7 = getelementptr inbounds %struct.tdefl_compressor, ptr %20, i32 0, i32 34
  %21 = load i64, ptr %m_out_buf_ofs7, align 8
  %sub8 = sub i64 %19, %21
  br label %cond.end

cond.false:                                       ; preds = %if.then3
  %22 = load ptr, ptr %d.addr, align 8
  %m_output_flush_remaining9 = getelementptr inbounds %struct.tdefl_compressor, ptr %22, i32 0, i32 22
  %23 = load i32, ptr %m_output_flush_remaining9, align 4
  %conv10 = zext i32 %23 to i64
  br label %cond.end

cond.end:                                         ; preds = %cond.false, %cond.true
  %cond = phi i64 [ %sub8, %cond.true ], [ %conv10, %cond.false ]
  store i64 %cond, ptr %n, align 8
  %24 = load ptr, ptr %d.addr, align 8
  %m_pOut_buf = getelementptr inbounds %struct.tdefl_compressor, ptr %24, i32 0, i32 28
  %25 = load ptr, ptr %m_pOut_buf, align 8
  %26 = load ptr, ptr %d.addr, align 8
  %m_out_buf_ofs11 = getelementptr inbounds %struct.tdefl_compressor, ptr %26, i32 0, i32 34
  %27 = load i64, ptr %m_out_buf_ofs11, align 8
  %add.ptr = getelementptr inbounds i8, ptr %25, i64 %27
  %28 = load ptr, ptr %d.addr, align 8
  %m_output_buf = getelementptr inbounds %struct.tdefl_compressor, ptr %28, i32 0, i32 42
  %arraydecay = getelementptr inbounds [85196 x i8], ptr %m_output_buf, i64 0, i64 0
  %29 = load ptr, ptr %d.addr, align 8
  %m_output_flush_ofs = getelementptr inbounds %struct.tdefl_compressor, ptr %29, i32 0, i32 21
  %30 = load i32, ptr %m_output_flush_ofs, align 8
  %idx.ext = zext i32 %30 to i64
  %add.ptr12 = getelementptr inbounds i8, ptr %arraydecay, i64 %idx.ext
  %31 = load i64, ptr %n, align 8
  call void @llvm.memcpy.p0.p0.i64(ptr align 1 %add.ptr, ptr align 1 %add.ptr12, i64 %31, i1 false)
  %32 = load i64, ptr %n, align 8
  %conv13 = trunc i64 %32 to i32
  %33 = load ptr, ptr %d.addr, align 8
  %m_output_flush_ofs14 = getelementptr inbounds %struct.tdefl_compressor, ptr %33, i32 0, i32 21
  %34 = load i32, ptr %m_output_flush_ofs14, align 8
  %add = add i32 %34, %conv13
  store i32 %add, ptr %m_output_flush_ofs14, align 8
  %35 = load i64, ptr %n, align 8
  %conv15 = trunc i64 %35 to i32
  %36 = load ptr, ptr %d.addr, align 8
  %m_output_flush_remaining16 = getelementptr inbounds %struct.tdefl_compressor, ptr %36, i32 0, i32 22
  %37 = load i32, ptr %m_output_flush_remaining16, align 4
  %sub17 = sub i32 %37, %conv15
  store i32 %sub17, ptr %m_output_flush_remaining16, align 4
  %38 = load i64, ptr %n, align 8
  %39 = load ptr, ptr %d.addr, align 8
  %m_out_buf_ofs18 = getelementptr inbounds %struct.tdefl_compressor, ptr %39, i32 0, i32 34
  %40 = load i64, ptr %m_out_buf_ofs18, align 8
  %add19 = add i64 %40, %38
  store i64 %add19, ptr %m_out_buf_ofs18, align 8
  %41 = load ptr, ptr %d.addr, align 8
  %m_out_buf_ofs20 = getelementptr inbounds %struct.tdefl_compressor, ptr %41, i32 0, i32 34
  %42 = load i64, ptr %m_out_buf_ofs20, align 8
  %43 = load ptr, ptr %d.addr, align 8
  %m_pOut_buf_size21 = getelementptr inbounds %struct.tdefl_compressor, ptr %43, i32 0, i32 30
  %44 = load ptr, ptr %m_pOut_buf_size21, align 8
  store i64 %42, ptr %44, align 8
  br label %if.end22

if.end22:                                         ; preds = %cond.end, %if.end
  %45 = load ptr, ptr %d.addr, align 8
  %m_finished = getelementptr inbounds %struct.tdefl_compressor, ptr %45, i32 0, i32 23
  %46 = load i32, ptr %m_finished, align 8
  %tobool23 = icmp ne i32 %46, 0
  br i1 %tobool23, label %land.rhs, label %land.end

land.rhs:                                         ; preds = %if.end22
  %47 = load ptr, ptr %d.addr, align 8
  %m_output_flush_remaining24 = getelementptr inbounds %struct.tdefl_compressor, ptr %47, i32 0, i32 22
  %48 = load i32, ptr %m_output_flush_remaining24, align 4
  %tobool25 = icmp ne i32 %48, 0
  %lnot = xor i1 %tobool25, true
  br label %land.end

land.end:                                         ; preds = %land.rhs, %if.end22
  %49 = phi i1 [ false, %if.end22 ], [ %lnot, %land.rhs ]
  %cond26 = select i1 %49, i32 1, i32 0
  ret i32 %cond26
}