; Function Attrs: mustprogress nofree norecurse nosync nounwind willreturn memory(readwrite, inaccessiblemem: none) uwtable
define internal fastcc range(i32 0, 2) i32 @tdefl_flush_output_buffer(ptr noundef nonnull captures(none) %d) unnamed_addr #7 {
entry:
  %m_pIn_buf_size = getelementptr inbounds nuw i8, ptr %d, i64 152
  %0 = load ptr, ptr %m_pIn_buf_size, align 8
  %tobool.not = icmp eq ptr %0, null
  br i1 %tobool.not, label %if.end, label %if.then

if.then:                                          ; preds = %entry
  %m_pSrc = getelementptr inbounds nuw i8, ptr %d, i64 176
  %1 = load ptr, ptr %m_pSrc, align 8
  %m_pIn_buf = getelementptr inbounds nuw i8, ptr %d, i64 136
  %2 = load ptr, ptr %m_pIn_buf, align 8
  %sub.ptr.lhs.cast = ptrtoint ptr %1 to i64
  %sub.ptr.rhs.cast = ptrtoint ptr %2 to i64
  %sub.ptr.sub = sub i64 %sub.ptr.lhs.cast, %sub.ptr.rhs.cast
  store i64 %sub.ptr.sub, ptr %0, align 8
  br label %if.end

if.end:                                           ; preds = %if.then, %entry
  %m_pOut_buf_size = getelementptr inbounds nuw i8, ptr %d, i64 160
  %3 = load ptr, ptr %m_pOut_buf_size, align 8
  %tobool2.not = icmp eq ptr %3, null
  br i1 %tobool2.not, label %if.end22, label %if.then3

if.then3:                                         ; preds = %if.end
  %4 = load i64, ptr %3, align 8
  %m_out_buf_ofs = getelementptr inbounds nuw i8, ptr %d, i64 192
  %5 = load i64, ptr %m_out_buf_ofs, align 8
  %sub = sub i64 %4, %5
  %m_output_flush_remaining = getelementptr inbounds nuw i8, ptr %d, i64 116
  %6 = load i32, ptr %m_output_flush_remaining, align 4
  %conv = zext i32 %6 to i64
  %sub.conv = tail call i64 @llvm.umin.i64(i64 %sub, i64 %conv)
  %m_pOut_buf = getelementptr inbounds nuw i8, ptr %d, i64 144
  %7 = load ptr, ptr %m_pOut_buf, align 8
  %add.ptr = getelementptr inbounds i8, ptr %7, i64 %5
  %m_output_buf = getelementptr inbounds nuw i8, ptr %d, i64 234154
  %m_output_flush_ofs = getelementptr inbounds nuw i8, ptr %d, i64 112
  %8 = load i32, ptr %m_output_flush_ofs, align 8
  %idx.ext = zext i32 %8 to i64
  %add.ptr12 = getelementptr inbounds nuw i8, ptr %m_output_buf, i64 %idx.ext
  tail call void @llvm.memcpy.p0.p0.i64(ptr align 1 %add.ptr, ptr nonnull align 1 %add.ptr12, i64 %sub.conv, i1 false)
  %conv13 = trunc nuw i64 %sub.conv to i32
  %9 = load i32, ptr %m_output_flush_ofs, align 8
  %add = add i32 %9, %conv13
  store i32 %add, ptr %m_output_flush_ofs, align 8
  %10 = load i32, ptr %m_output_flush_remaining, align 4
  %sub17 = sub i32 %10, %conv13
  store i32 %sub17, ptr %m_output_flush_remaining, align 4
  %11 = load i64, ptr %m_out_buf_ofs, align 8
  %add19 = add i64 %11, %sub.conv
  store i64 %add19, ptr %m_out_buf_ofs, align 8
  %12 = load ptr, ptr %m_pOut_buf_size, align 8
  store i64 %add19, ptr %12, align 8
  br label %if.end22

if.end22:                                         ; preds = %if.then3, %if.end
  %m_finished = getelementptr inbounds nuw i8, ptr %d, i64 120
  %13 = load i32, ptr %m_finished, align 8
  %tobool23.not = icmp eq i32 %13, 0
  br i1 %tobool23.not, label %land.end, label %land.rhs

land.rhs:                                         ; preds = %if.end22
  %m_output_flush_remaining24 = getelementptr inbounds nuw i8, ptr %d, i64 116
  %14 = load i32, ptr %m_output_flush_remaining24, align 4
  %tobool25.not = icmp eq i32 %14, 0
  %15 = zext i1 %tobool25.not to i32
  br label %land.end

land.end:                                         ; preds = %land.rhs, %if.end22
  %cond26 = phi i32 [ 0, %if.end22 ], [ %15, %land.rhs ]
  ret i32 %cond26
}